; Function Attrs: mustprogress uwtable
define noundef zeroext i1 @_ZN5Ipopt11TNLPAdapter14update_local_xERKNS_6VectorE(ptr noundef nonnull align 8 captures(none) dereferenceable(600) %0, ptr noundef nonnull readonly align 8 captures(none) dereferenceable(205) %1) local_unnamed_addr #3 align 2 {
  %3 = getelementptr inbounds nuw i8, ptr %1, i64 48
  %4 = load i32, ptr %3, align 8, !tbaa !275
  %5 = getelementptr inbounds nuw i8, ptr %0, i64 352
  %6 = load i32, ptr %5, align 8, !tbaa !276
  %7 = icmp ne i32 %4, %6
  br i1 %7, label %8, label %12

8:                                                ; preds = %2
  %9 = getelementptr inbounds nuw i8, ptr %0, i64 312
  %10 = load ptr, ptr %9, align 8, !tbaa !48
  tail call void @_ZN5Ipopt11TNLPAdapter7ResortXERKNS_6VectorEPdb(ptr noundef nonnull align 8 dereferenceable(600) %0, ptr noundef nonnull align 8 dereferenceable(205) %1, ptr noundef %10, i1 noundef zeroext true)
  %11 = load i32, ptr %3, align 8, !tbaa !275
  store i32 %11, ptr %5, align 8, !tbaa !276
  br label %12

12:                                               ; preds = %2, %8
  ret i1 %7
}